target datalayout = "e-m:e-p270:32:32-p271:32:32-p272:64:64-i64:64-i128:128-f80:128-n8:16:32:64-S128"
target triple = "x86_64-pc-linux-gnu"

@hf_nas_5gs_spare_bits = internal global i32 0, align 4
@hf_nas_5gs_mm_relay_key_req_params_relay_service_code = internal global i32 0, align 4
@hf_nas_5gs_mm_relay_key_req_params_nonce_1 = internal global i32 0, align 4
@hf_nas_5gs_mm_relay_key_req_params_uit = internal global i32 0, align 4
@hf_nas_5gs_mm_relay_key_req_params_ue_id = internal global i32 0, align 4

; Function Attrs: null_pointer_is_valid sspstrong uwtable
define internal zeroext i16 @de_nas_5gs_mm_relay_key_req_params(ptr noundef %0, ptr noundef %1, ptr noundef %2, i32 noundef %3, i32 noundef %4, ptr noundef %5, i32 noundef %6) #0 {
  %8 = alloca ptr, align 8
  %9 = alloca ptr, align 8
  %10 = alloca ptr, align 8
  %11 = alloca i32, align 4
  %12 = alloca i32, align 4
  %13 = alloca ptr, align 8
  %14 = alloca i32, align 4
  %15 = alloca i32, align 4
  store ptr %0, ptr %8, align 8
  store ptr %1, ptr %9, align 8
  store ptr %2, ptr %10, align 8
  store i32 %3, ptr %11, align 4
  store i32 %4, ptr %12, align 4
  store ptr %5, ptr %13, align 8
  store i32 %6, ptr %14, align 4
  call void @llvm.lifetime.start.p0(i64 4, ptr %15) #11
  %16 = load i32, ptr %11, align 4
  store i32 %16, ptr %15, align 4
  %17 = load ptr, ptr %9, align 8
  %18 = load i32, ptr @hf_nas_5gs_mm_relay_key_req_params_relay_service_code, align 4
  %19 = load ptr, ptr %8, align 8
  %20 = load i32, ptr %15, align 4
  %21 = call ptr @proto_tree_add_item(ptr noundef %17, i32 noundef %18, ptr noundef %19, i32 noundef %20, i32 noundef 3, i32 noundef 0)
  %22 = load i32, ptr %15, align 4
  %23 = add i32 %22, 3
  store i32 %23, ptr %15, align 4
  %24 = load ptr, ptr %9, align 8
  %25 = load i32, ptr @hf_nas_5gs_mm_relay_key_req_params_nonce_1, align 4
  %26 = load ptr, ptr %8, align 8
  %27 = load i32, ptr %11, align 4
  %28 = call ptr @proto_tree_add_item(ptr noundef %24, i32 noundef %25, ptr noundef %26, i32 noundef %27, i32 noundef 16, i32 noundef 0)
  %29 = load i32, ptr %15, align 4
  %30 = add i32 %29, 16
  store i32 %30, ptr %15, align 4
  %31 = load ptr, ptr %9, align 8
  %32 = load i32, ptr @hf_nas_5gs_spare_bits, align 4
  %33 = load ptr, ptr %8, align 8
  %34 = load i32, ptr %15, align 4
  %35 = shl i32 %34, 3
  %36 = call ptr @proto_tree_add_bits_item(ptr noundef %31, i32 noundef %32, ptr noundef %33, i32 noundef %35, i32 noundef 7, i32 noundef 0)
  %37 = load ptr, ptr %9, align 8
  %38 = load i32, ptr @hf_nas_5gs_mm_relay_key_req_params_uit, align 4
  %39 = load ptr, ptr %8, align 8
  %40 = load i32, ptr %15, align 4
  %41 = call ptr @proto_tree_add_item(ptr noundef %37, i32 noundef %38, ptr noundef %39, i32 noundef %40, i32 noundef 1, i32 noundef 0)
  %42 = load i32, ptr %15, align 4
  %43 = add i32 %42, 1
  store i32 %43, ptr %15, align 4
  %44 = load ptr, ptr %9, align 8
  %45 = load i32, ptr @hf_nas_5gs_mm_relay_key_req_params_ue_id, align 4
  %46 = load ptr, ptr %8, align 8
  %47 = load i32, ptr %15, align 4
  %48 = load i32, ptr %12, align 4
  %49 = load i32, ptr %15, align 4
  %50 = load i32, ptr %11, align 4
  %51 = sub i32 %49, %50
  %52 = sub i32 %48, %51
  %53 = call ptr @proto_tree_add_item(ptr noundef %44, i32 noundef %45, ptr noundef %46, i32 noundef %47, i32 noundef %52, i32 noundef 0)
  %54 = load i32, ptr %12, align 4
  %55 = trunc i32 %54 to i16
  call void @llvm.lifetime.end.p0(i64 4, ptr %15) #11
  ret i16 %55
}