; Function Attrs: null_pointer_is_valid sspstrong uwtable
define internal noundef zeroext i16 @de_nas_5gs_mm_relay_key_req_params(ptr noundef %0, ptr noundef %1, ptr readnone captures(none) %2, i32 noundef %3, i32 noundef %4, ptr readnone captures(none) %5, i32 %6) #0 {
  %8 = load i32, ptr @hf_nas_5gs_mm_relay_key_req_params_relay_service_code, align 4
  %9 = tail call ptr @proto_tree_add_item(ptr noundef %1, i32 noundef %8, ptr noundef %0, i32 noundef %3, i32 noundef 3, i32 noundef 0)
  %10 = load i32, ptr @hf_nas_5gs_mm_relay_key_req_params_nonce_1, align 4
  %11 = tail call ptr @proto_tree_add_item(ptr noundef %1, i32 noundef %10, ptr noundef %0, i32 noundef %3, i32 noundef 16, i32 noundef 0)
  %12 = add i32 %3, 19
  %13 = load i32, ptr @hf_nas_5gs_spare_bits, align 4
  %14 = shl i32 %12, 3
  %15 = tail call ptr @proto_tree_add_bits_item(ptr noundef %1, i32 noundef %13, ptr noundef %0, i32 noundef %14, i32 noundef 7, i32 noundef 0)
  %16 = load i32, ptr @hf_nas_5gs_mm_relay_key_req_params_uit, align 4
  %17 = tail call ptr @proto_tree_add_item(ptr noundef %1, i32 noundef %16, ptr noundef %0, i32 noundef %12, i32 noundef 1, i32 noundef 0)
  %18 = add i32 %3, 20
  %19 = load i32, ptr @hf_nas_5gs_mm_relay_key_req_params_ue_id, align 4
  %20 = add i32 %4, -20
  %21 = tail call ptr @proto_tree_add_item(ptr noundef %1, i32 noundef %19, ptr noundef %0, i32 noundef %18, i32 noundef %20, i32 noundef 0)
  %22 = trunc i32 %4 to i16
  ret i16 %22
}